target datalayout = "e-m:e-p270:32:32-p271:32:32-p272:64:64-i64:64-i128:128-f80:128-n8:16:32:64-S128"
target triple = "x86_64-pc-linux-gnu"

%struct.Curl_multi = type { i32, i32, i32, %struct.Curl_llist, %struct.Curl_llist, %struct.Curl_llist, %struct.Curl_llist, i64, ptr, ptr, ptr, ptr, %struct.Curl_hash, ptr, %struct.PslCache, ptr, ptr, i64, ptr, i64, ptr, i64, %struct.Curl_hash, %struct.Curl_hash, %struct.cpool, i64, i64, ptr, ptr, i64, %struct.curltime, [2 x i32], i32, i32, i8, i8 }
%struct.Curl_llist = type { ptr, ptr, ptr, i64 }
%struct.PslCache = type { ptr, i64, i8 }
%struct.Curl_hash = type { ptr, ptr, ptr, ptr, i64, i64 }
%struct.cpool = type { %struct.Curl_hash, i64, i64, i64, %struct.curltime, %struct.Curl_llist, ptr, ptr, ptr, ptr, i8 }
%struct.curltime = type { i64, i32 }
%struct.Curl_llist_node = type { ptr, ptr, ptr, ptr }
%struct.Curl_easy = type { i32, i64, i64, ptr, %struct.Curl_llist_node, %struct.Curl_llist_node, i32, i32, %struct.Curl_message, %struct.easy_pollset, %struct.Names, ptr, ptr, ptr, ptr, %struct.SingleRequest, %struct.UserDefined, ptr, ptr, ptr, %struct.Progress, %struct.UrlState, ptr, %struct.PureInfo, %struct.curl_tlssessioninfo }
%struct.Curl_message = type { %struct.Curl_llist_node, %struct.CURLMsg }
%struct.CURLMsg = type { i32, ptr, %union.anon }
%union.anon = type { ptr }
%struct.easy_pollset = type { [5 x i32], i32, [5 x i8] }
%struct.Names = type { ptr, i32 }
%struct.SingleRequest = type <{ i64, i64, i64, i64, %struct.curltime, i32, i32, i32, i32, i64, i32, i32, i8, i8, [2 x i8], i32, ptr, ptr, %struct.bufq, i64, i64, ptr, ptr, %union.anon.0, ptr, i8, i32, [3 x i8] }>
%struct.bufq = type { ptr, ptr, ptr, ptr, i64, i64, i64, i32 }
%union.anon.0 = type { ptr }
%struct.UserDefined = type <{ ptr, ptr, ptr, ptr, ptr, ptr, i64, i64, i64, ptr, ptr, i64, ptr, ptr, ptr, ptr, ptr, ptr, ptr, ptr, ptr, ptr, ptr, ptr, ptr, ptr, ptr, ptr, ptr, ptr, ptr, ptr, ptr, ptr, ptr, i64, i64, i64, i64, i64, i64, i64, i64, i64, ptr, ptr, %struct.curl_mimepart, ptr, ptr, ptr, i64, %struct.ssl_config_data, %struct.ssl_config_data, ptr, i16, i8, i8, %struct.ssl_general_config, i32, i32, i32, [4 x i8], ptr, ptr, i64, i32, i8, i8, i8, i8, ptr, ptr, ptr, i32, [4 x i8], [74 x ptr], [8 x ptr], i32, i32, i32, [4 x i8], ptr, i32, [4 x i8], ptr, ptr, ptr, ptr, ptr, i32, i32, i32, i32, i32, i32, i32, i32, i64, ptr, ptr, i64, ptr, i64, ptr, ptr, ptr, ptr, i32, i16, i16, i16, i8, i8, i8, i8, i8, i8, i8, i8, i64, [6 x i8] }>
%struct.curl_mimepart = type { ptr, ptr, i32, i32, ptr, ptr, ptr, ptr, ptr, ptr, ptr, ptr, ptr, ptr, ptr, i64, %struct.mime_state, ptr, %struct.mime_encoder_state, i64 }
%struct.mime_state = type { i32, ptr, i64 }
%struct.mime_encoder_state = type { i64, i64, i64, [256 x i8] }
%struct.ssl_config_data = type { %struct.ssl_primary_config, i64, ptr, ptr, ptr, ptr, ptr, ptr, ptr, i16 }
%struct.ssl_primary_config = type { ptr, ptr, ptr, ptr, ptr, ptr, ptr, ptr, ptr, ptr, ptr, ptr, ptr, ptr, i8, i32, i8, i8 }
%struct.ssl_general_config = type { i32 }
%struct.Progress = type { i64, %struct.pgrs_dir, %struct.pgrs_dir, i64, i64, i32, i32, i64, i64, i64, i64, i64, i64, i64, i64, i64, %struct.curltime, %struct.curltime, %struct.curltime, %struct.curltime, %struct.curltime, [6 x i64], [6 x %struct.curltime], i32, i8 }
%struct.pgrs_dir = type { i64, i64, i64, %struct.pgrs_measure }
%struct.pgrs_measure = type { %struct.curltime, i64 }
%struct.UrlState = type { %struct.curltime, i64, i64, %struct.dynbuf, ptr, i64, ptr, i32, i32, i32, ptr, i32, i64, i32, ptr, %struct.digestdata, %struct.digestdata, %struct.auth, %struct.auth, %struct.Curl_async, ptr, i8, %struct.curltime, %struct.Curl_tree, %struct.Curl_llist, [15 x %struct.time_node], ptr, ptr, i64, i64, i64, i64, [32 x i8], i64, ptr, ptr, ptr, %struct.urlpieces, ptr, ptr, ptr, ptr, ptr, i64, %struct.dynbuf, %struct.Curl_llist, [2 x %struct.curl_header], ptr, i32, ptr, ptr, %struct.store_netrc, %struct.dynamically_allocated_data, i8, i8, i8, i8, i32 }
%struct.digestdata = type { ptr, ptr, ptr, ptr, ptr, ptr, i32, i8, i8 }
%struct.auth = type { i64, i64, i64, i8 }
%struct.Curl_async = type { ptr, ptr, ptr, ptr, i32, i32, i8 }
%struct.Curl_tree = type { ptr, ptr, ptr, ptr, %struct.curltime, ptr }
%struct.time_node = type { %struct.Curl_llist_node, %struct.curltime, i32 }
%struct.urlpieces = type { ptr, ptr, ptr, ptr, ptr, ptr, ptr, ptr }
%struct.dynbuf = type { ptr, i64, i64, i64 }
%struct.curl_header = type { ptr, ptr, i64, i64, i32, ptr }
%struct.store_netrc = type { %struct.dynbuf, ptr, i8 }
%struct.dynamically_allocated_data = type { ptr, ptr, ptr, ptr, ptr, ptr, ptr, ptr, ptr, ptr, ptr, ptr, ptr, ptr }
%struct.PureInfo = type { i32, i32, i32, i64, i64, i64, i64, i64, i64, i64, ptr, ptr, i64, i32, %struct.ip_quadruple, i32, ptr, i32, %struct.curl_certinfo, i32, i8 }
%struct.ip_quadruple = type { [46 x i8], [46 x i8], i32, i32 }
%struct.curl_certinfo = type { i32, ptr }
%struct.curl_tlssessioninfo = type { i32, ptr }
%struct.fd_set = type { [16 x i64] }

; Function Attrs: nounwind uwtable
define i32 @curl_multi_fdset(ptr noundef %0, ptr noundef %1, ptr noundef %2, ptr noundef %3, ptr noundef %4) #0 {
  %6 = alloca i32, align 4
  %7 = alloca ptr, align 8
  %8 = alloca ptr, align 8
  %9 = alloca ptr, align 8
  %10 = alloca ptr, align 8
  %11 = alloca ptr, align 8
  %12 = alloca i32, align 4
  %13 = alloca ptr, align 8
  %14 = alloca ptr, align 8
  %15 = alloca i32, align 4
  %16 = alloca i32, align 4
  %17 = alloca ptr, align 8
  store ptr %0, ptr %7, align 8, !tbaa !7
  store ptr %1, ptr %8, align 8, !tbaa !7
  store ptr %2, ptr %9, align 8, !tbaa !7
  store ptr %3, ptr %10, align 8, !tbaa !7
  store ptr %4, ptr %11, align 8, !tbaa !156
  call void @llvm.lifetime.start.p0(i64 4, ptr %12) #9
  store i32 -1, ptr %12, align 4, !tbaa !30
  call void @llvm.lifetime.start.p0(i64 8, ptr %13) #9
  call void @llvm.lifetime.start.p0(i64 8, ptr %14) #9
  %18 = load ptr, ptr %7, align 8, !tbaa !7
  store ptr %18, ptr %14, align 8, !tbaa !9
  call void @llvm.lifetime.start.p0(i64 4, ptr %15) #9
  %19 = load ptr, ptr %14, align 8, !tbaa !9
  %20 = icmp ne ptr %19, null
  br i1 %20, label %21, label %26

21:                                               ; preds = %5
  %22 = load ptr, ptr %14, align 8, !tbaa !9
  %23 = getelementptr inbounds nuw %struct.Curl_multi, ptr %22, i32 0, i32 0
  %24 = load i32, ptr %23, align 8, !tbaa !11
  %25 = icmp eq i32 %24, 764702
  br i1 %25, label %27, label %26

26:                                               ; preds = %21, %5
  store i32 1, ptr %6, align 4
  store i32 1, ptr %16, align 4
  br label %171

27:                                               ; preds = %21
  %28 = load ptr, ptr %14, align 8, !tbaa !9
  %29 = getelementptr inbounds nuw %struct.Curl_multi, ptr %28, i32 0, i32 35
  %30 = load i8, ptr %29, align 1
  %31 = lshr i8 %30, 2
  %32 = and i8 %31, 1
  %33 = zext i8 %32 to i32
  %34 = icmp ne i32 %33, 0
  br i1 %34, label %35, label %36

35:                                               ; preds = %27
  store i32 8, ptr %6, align 4
  store i32 1, ptr %16, align 4
  br label %171

36:                                               ; preds = %27
  %37 = load ptr, ptr %14, align 8, !tbaa !9
  %38 = getelementptr inbounds nuw %struct.Curl_multi, ptr %37, i32 0, i32 4
  %39 = call ptr @Curl_llist_head(ptr noundef %38)
  store ptr %39, ptr %13, align 8, !tbaa !115
  br label %40

40:                                               ; preds = %161, %36
  %41 = load ptr, ptr %13, align 8, !tbaa !115
  %42 = icmp ne ptr %41, null
  br i1 %42, label %43, label %164

43:                                               ; preds = %40
  call void @llvm.lifetime.start.p0(i64 8, ptr %17) #9
  %44 = load ptr, ptr %13, align 8, !tbaa !115
  %45 = call ptr @Curl_node_elem(ptr noundef %44)
  store ptr %45, ptr %17, align 8, !tbaa !43
  %46 = load ptr, ptr %17, align 8, !tbaa !43
  %47 = load ptr, ptr %17, align 8, !tbaa !43
  %48 = getelementptr inbounds nuw %struct.Curl_easy, ptr %47, i32 0, i32 9
  call void @multi_getsock(ptr noundef %46, ptr noundef %48)
  store i32 0, ptr %15, align 4, !tbaa !30
  br label %49

49:                                               ; preds = %157, %43
  %50 = load i32, ptr %15, align 4, !tbaa !30
  %51 = load ptr, ptr %17, align 8, !tbaa !43
  %52 = getelementptr inbounds nuw %struct.Curl_easy, ptr %51, i32 0, i32 9
  %53 = getelementptr inbounds nuw %struct.easy_pollset, ptr %52, i32 0, i32 1
  %54 = load i32, ptr %53, align 4, !tbaa !158
  %55 = icmp ult i32 %50, %54
  br i1 %55, label %56, label %160

56:                                               ; preds = %49
  %57 = load ptr, ptr %17, align 8, !tbaa !43
  %58 = getelementptr inbounds nuw %struct.Curl_easy, ptr %57, i32 0, i32 9
  %59 = getelementptr inbounds nuw %struct.easy_pollset, ptr %58, i32 0, i32 0
  %60 = load i32, ptr %15, align 4, !tbaa !30
  %61 = zext i32 %60 to i64
  %62 = getelementptr inbounds nuw [5 x i32], ptr %59, i64 0, i64 %61
  %63 = load i32, ptr %62, align 4, !tbaa !30
  %64 = icmp slt i32 %63, 1024
  br i1 %64, label %66, label %65

65:                                               ; preds = %56
  br label %157

66:                                               ; preds = %56
  %67 = load ptr, ptr %17, align 8, !tbaa !43
  %68 = getelementptr inbounds nuw %struct.Curl_easy, ptr %67, i32 0, i32 9
  %69 = getelementptr inbounds nuw %struct.easy_pollset, ptr %68, i32 0, i32 2
  %70 = load i32, ptr %15, align 4, !tbaa !30
  %71 = zext i32 %70 to i64
  %72 = getelementptr inbounds nuw [5 x i8], ptr %69, i64 0, i64 %71
  %73 = load i8, ptr %72, align 1, !tbaa !104
  %74 = zext i8 %73 to i32
  %75 = and i32 %74, 1
  %76 = icmp ne i32 %75, 0
  br i1 %76, label %77, label %102

77:                                               ; preds = %66
  %78 = load ptr, ptr %17, align 8, !tbaa !43
  %79 = getelementptr inbounds nuw %struct.Curl_easy, ptr %78, i32 0, i32 9
  %80 = getelementptr inbounds nuw %struct.easy_pollset, ptr %79, i32 0, i32 0
  %81 = load i32, ptr %15, align 4, !tbaa !30
  %82 = zext i32 %81 to i64
  %83 = getelementptr inbounds nuw [5 x i32], ptr %80, i64 0, i64 %82
  %84 = load i32, ptr %83, align 4, !tbaa !30
  %85 = srem i32 %84, 64
  %86 = zext i32 %85 to i64
  %87 = shl i64 1, %86
  %88 = load ptr, ptr %8, align 8, !tbaa !7
  %89 = getelementptr inbounds nuw %struct.fd_set, ptr %88, i32 0, i32 0
  %90 = load ptr, ptr %17, align 8, !tbaa !43
  %91 = getelementptr inbounds nuw %struct.Curl_easy, ptr %90, i32 0, i32 9
  %92 = getelementptr inbounds nuw %struct.easy_pollset, ptr %91, i32 0, i32 0
  %93 = load i32, ptr %15, align 4, !tbaa !30
  %94 = zext i32 %93 to i64
  %95 = getelementptr inbounds nuw [5 x i32], ptr %92, i64 0, i64 %94
  %96 = load i32, ptr %95, align 4, !tbaa !30
  %97 = sdiv i32 %96, 64
  %98 = sext i32 %97 to i64
  %99 = getelementptr inbounds [16 x i64], ptr %89, i64 0, i64 %98
  %100 = load i64, ptr %99, align 8, !tbaa !3
  %101 = or i64 %100, %87
  store i64 %101, ptr %99, align 8, !tbaa !3
  br label %102

102:                                              ; preds = %77, %66
  %103 = load ptr, ptr %17, align 8, !tbaa !43
  %104 = getelementptr inbounds nuw %struct.Curl_easy, ptr %103, i32 0, i32 9
  %105 = getelementptr inbounds nuw %struct.easy_pollset, ptr %104, i32 0, i32 2
  %106 = load i32, ptr %15, align 4, !tbaa !30
  %107 = zext i32 %106 to i64
  %108 = getelementptr inbounds nuw [5 x i8], ptr %105, i64 0, i64 %107
  %109 = load i8, ptr %108, align 1, !tbaa !104
  %110 = zext i8 %109 to i32
  %111 = and i32 %110, 2
  %112 = icmp ne i32 %111, 0
  br i1 %112, label %113, label %138

113:                                              ; preds = %102
  %114 = load ptr, ptr %17, align 8, !tbaa !43
  %115 = getelementptr inbounds nuw %struct.Curl_easy, ptr %114, i32 0, i32 9
  %116 = getelementptr inbounds nuw %struct.easy_pollset, ptr %115, i32 0, i32 0
  %117 = load i32, ptr %15, align 4, !tbaa !30
  %118 = zext i32 %117 to i64
  %119 = getelementptr inbounds nuw [5 x i32], ptr %116, i64 0, i64 %118
  %120 = load i32, ptr %119, align 4, !tbaa !30
  %121 = srem i32 %120, 64
  %122 = zext i32 %121 to i64
  %123 = shl i64 1, %122
  %124 = load ptr, ptr %9, align 8, !tbaa !7
  %125 = getelementptr inbounds nuw %struct.fd_set, ptr %124, i32 0, i32 0
  %126 = load ptr, ptr %17, align 8, !tbaa !43
  %127 = getelementptr inbounds nuw %struct.Curl_easy, ptr %126, i32 0, i32 9
  %128 = getelementptr inbounds nuw %struct.easy_pollset, ptr %127, i32 0, i32 0
  %129 = load i32, ptr %15, align 4, !tbaa !30
  %130 = zext i32 %129 to i64
  %131 = getelementptr inbounds nuw [5 x i32], ptr %128, i64 0, i64 %130
  %132 = load i32, ptr %131, align 4, !tbaa !30
  %133 = sdiv i32 %132, 64
  %134 = sext i32 %133 to i64
  %135 = getelementptr inbounds [16 x i64], ptr %125, i64 0, i64 %134
  %136 = load i64, ptr %135, align 8, !tbaa !3
  %137 = or i64 %136, %123
  store i64 %137, ptr %135, align 8, !tbaa !3
  br label %138

138:                                              ; preds = %113, %102
  %139 = load ptr, ptr %17, align 8, !tbaa !43
  %140 = getelementptr inbounds nuw %struct.Curl_easy, ptr %139, i32 0, i32 9
  %141 = getelementptr inbounds nuw %struct.easy_pollset, ptr %140, i32 0, i32 0
  %142 = load i32, ptr %15, align 4, !tbaa !30
  %143 = zext i32 %142 to i64
  %144 = getelementptr inbounds nuw [5 x i32], ptr %141, i64 0, i64 %143
  %145 = load i32, ptr %144, align 4, !tbaa !30
  %146 = load i32, ptr %12, align 4, !tbaa !30
  %147 = icmp sgt i32 %145, %146
  br i1 %147, label %148, label %156

148:                                              ; preds = %138
  %149 = load ptr, ptr %17, align 8, !tbaa !43
  %150 = getelementptr inbounds nuw %struct.Curl_easy, ptr %149, i32 0, i32 9
  %151 = getelementptr inbounds nuw %struct.easy_pollset, ptr %150, i32 0, i32 0
  %152 = load i32, ptr %15, align 4, !tbaa !30
  %153 = zext i32 %152 to i64
  %154 = getelementptr inbounds nuw [5 x i32], ptr %151, i64 0, i64 %153
  %155 = load i32, ptr %154, align 4, !tbaa !30
  store i32 %155, ptr %12, align 4, !tbaa !30
  br label %156

156:                                              ; preds = %148, %138
  br label %157

157:                                              ; preds = %156, %65
  %158 = load i32, ptr %15, align 4, !tbaa !30
  %159 = add i32 %158, 1
  store i32 %159, ptr %15, align 4, !tbaa !30
  br label %49, !llvm.loop !159

160:                                              ; preds = %49
  call void @llvm.lifetime.end.p0(i64 8, ptr %17) #9
  br label %161

161:                                              ; preds = %160
  %162 = load ptr, ptr %13, align 8, !tbaa !115
  %163 = call ptr @Curl_node_next(ptr noundef %162)
  store ptr %163, ptr %13, align 8, !tbaa !115
  br label %40, !llvm.loop !160

164:                                              ; preds = %40
  %165 = load ptr, ptr %14, align 8, !tbaa !9
  %166 = getelementptr inbounds nuw %struct.Curl_multi, ptr %165, i32 0, i32 24
  %167 = load ptr, ptr %8, align 8, !tbaa !7
  %168 = load ptr, ptr %9, align 8, !tbaa !7
  call void @Curl_cpool_setfds(ptr noundef %166, ptr noundef %167, ptr noundef %168, ptr noundef %12)
  %169 = load i32, ptr %12, align 4, !tbaa !30
  %170 = load ptr, ptr %11, align 8, !tbaa !156
  store i32 %169, ptr %170, align 4, !tbaa !30
  store i32 0, ptr %6, align 4
  store i32 1, ptr %16, align 4
  br label %171

171:                                              ; preds = %164, %35, %26
  call void @llvm.lifetime.end.p0(i64 4, ptr %15) #9
  call void @llvm.lifetime.end.p0(i64 8, ptr %14) #9
  call void @llvm.lifetime.end.p0(i64 8, ptr %13) #9
  call void @llvm.lifetime.end.p0(i64 4, ptr %12) #9
  %172 = load i32, ptr %6, align 4
  ret i32 %172
}