; Function Attrs: nounwind uwtable
define range(i32 0, 9) i32 @curl_multi_fdset(ptr noundef %0, ptr noundef %1, ptr noundef %2, ptr noundef readnone captures(none) %3, ptr noundef writeonly captures(none) %4) local_unnamed_addr #0 {
  %6 = alloca i32, align 4
  call void @llvm.lifetime.start.p0(i64 4, ptr nonnull %6) #19
  store i32 -1, ptr %6, align 4, !tbaa !28
  %.not = icmp eq ptr %0, null
  br i1 %.not, label %62, label %7

7:                                                ; preds = %5
  %8 = load i32, ptr %0, align 8, !tbaa !7
  %9 = icmp eq i32 %8, 764702
  br i1 %9, label %10, label %62

10:                                               ; preds = %7
  %11 = getelementptr inbounds nuw i8, ptr %0, i64 649
  %12 = load i8, ptr %11, align 1
  %13 = and i8 %12, 4
  %.not42 = icmp eq i8 %13, 0
  br i1 %.not42, label %14, label %62

14:                                               ; preds = %10
  %15 = getelementptr inbounds nuw i8, ptr %0, i64 48
  %16 = tail call ptr @Curl_llist_head(ptr noundef nonnull %15) #19
  %.not4352 = icmp eq ptr %16, null
  br i1 %.not4352, label %._crit_edge57, label %.lr.ph56

.lr.ph56:                                         ; preds = %14, %._crit_edge
  %.03854 = phi ptr [ %59, %._crit_edge ], [ %16, %14 ]
  %.promoted5153 = phi i32 [ %.promoted48, %._crit_edge ], [ -1, %14 ]
  %17 = tail call ptr @Curl_node_elem(ptr noundef nonnull %.03854) #19
  %18 = getelementptr inbounds nuw i8, ptr %17, i64 160
  tail call fastcc void @multi_getsock(ptr noundef %17, ptr noundef nonnull %18)
  %19 = getelementptr inbounds nuw i8, ptr %17, i64 180
  %20 = load i32, ptr %19, align 4, !tbaa !143
  %.not58 = icmp eq i32 %20, 0
  br i1 %.not58, label %._crit_edge, label %.lr.ph

.lr.ph:                                           ; preds = %.lr.ph56
  %21 = getelementptr inbounds nuw i8, ptr %17, i64 184
  %22 = zext i32 %20 to i64
  br label %23

23:                                               ; preds = %.lr.ph, %56
  %indvars.iv = phi i64 [ 0, %.lr.ph ], [ %indvars.iv.next, %56 ]
  %.promoted50 = phi i32 [ %.promoted5153, %.lr.ph ], [ %.promoted49, %56 ]
  %24 = phi i32 [ %.promoted5153, %.lr.ph ], [ %57, %56 ]
  %25 = getelementptr inbounds nuw [5 x i32], ptr %18, i64 0, i64 %indvars.iv
  %26 = load i32, ptr %25, align 4, !tbaa !28
  %27 = icmp slt i32 %26, 1024
  br i1 %27, label %28, label %56

28:                                               ; preds = %23
  %29 = getelementptr inbounds nuw [5 x i8], ptr %21, i64 0, i64 %indvars.iv
  %30 = load i8, ptr %29, align 1, !tbaa !96
  %31 = and i8 %30, 1
  %.not44 = icmp eq i8 %31, 0
  br i1 %.not44, label %41, label %32

32:                                               ; preds = %28
  %33 = srem i32 %26, 64
  %34 = zext nneg i32 %33 to i64
  %35 = shl nuw i64 1, %34
  %36 = sdiv i32 %26, 64
  %37 = sext i32 %36 to i64
  %38 = getelementptr inbounds [16 x i64], ptr %1, i64 0, i64 %37
  %39 = load i64, ptr %38, align 8, !tbaa !115
  %40 = or i64 %39, %35
  store i64 %40, ptr %38, align 8, !tbaa !115
  %.pre = load i8, ptr %29, align 1, !tbaa !96
  br label %41

41:                                               ; preds = %32, %28
  %42 = phi i8 [ %.pre, %32 ], [ %30, %28 ]
  %43 = and i8 %42, 2
  %.not45 = icmp eq i8 %43, 0
  br i1 %.not45, label %53, label %44

44:                                               ; preds = %41
  %45 = srem i32 %26, 64
  %46 = zext nneg i32 %45 to i64
  %47 = shl nuw i64 1, %46
  %48 = sdiv i32 %26, 64
  %49 = sext i32 %48 to i64
  %50 = getelementptr inbounds [16 x i64], ptr %2, i64 0, i64 %49
  %51 = load i64, ptr %50, align 8, !tbaa !115
  %52 = or i64 %51, %47
  store i64 %52, ptr %50, align 8, !tbaa !115
  br label %53

53:                                               ; preds = %44, %41
  %54 = icmp sgt i32 %26, %24
  br i1 %54, label %55, label %56

55:                                               ; preds = %53
  store i32 %26, ptr %6, align 4, !tbaa !28
  br label %56

56:                                               ; preds = %53, %55, %23
  %.promoted49 = phi i32 [ %.promoted50, %53 ], [ %26, %55 ], [ %.promoted50, %23 ]
  %57 = phi i32 [ %24, %53 ], [ %26, %55 ], [ %24, %23 ]
  %indvars.iv.next = add nuw nsw i64 %indvars.iv, 1
  %58 = icmp samesign ult i64 %indvars.iv.next, %22
  br i1 %58, label %23, label %._crit_edge, !llvm.loop !144

._crit_edge:                                      ; preds = %56, %.lr.ph56
  %.promoted48 = phi i32 [ %.promoted5153, %.lr.ph56 ], [ %.promoted49, %56 ]
  %59 = tail call ptr @Curl_node_next(ptr noundef nonnull %.03854) #19
  %.not43 = icmp eq ptr %59, null
  br i1 %.not43, label %._crit_edge57, label %.lr.ph56, !llvm.loop !145

._crit_edge57:                                    ; preds = %._crit_edge, %14
  %60 = getelementptr inbounds nuw i8, ptr %0, i64 416
  call void @Curl_cpool_setfds(ptr noundef nonnull %60, ptr noundef %1, ptr noundef %2, ptr noundef nonnull %6) #19
  %61 = load i32, ptr %6, align 4, !tbaa !28
  store i32 %61, ptr %4, align 4, !tbaa !28
  br label %62

62:                                               ; preds = %10, %5, %7, %._crit_edge57
  %.0 = phi i32 [ 0, %._crit_edge57 ], [ 1, %7 ], [ 1, %5 ], [ 8, %10 ]
  call void @llvm.lifetime.end.p0(i64 4, ptr nonnull %6) #19
  ret i32 %.0
}